target datalayout = "e-m:e-p270:32:32-p271:32:32-p272:64:64-i64:64-i128:128-f80:128-n8:16:32:64-S128"
target triple = "x86_64-pc-linux-gnu"

; Function Attrs: inlinehint mustprogress nounwind uwtable
define internal noundef i32 @_ZL12ARRAY_LENGTHItLj87EEjRAT0__KT_(ptr noundef nonnull align 2 dereferenceable(174) %0) #1 {
  %2 = alloca ptr, align 8
  store ptr %0, ptr %2, align 8, !tbaa !14
  ret i32 87
}

; Function Attrs: mustprogress nounwind uwtable
define hidden noundef i32 @_ZN2OT4cff136lookup_expert_subset_charset_for_sidEj(i32 noundef %0) #0 align 2 {
  %2 = alloca i32, align 4
  %3 = alloca i32, align 4
  store i32 %0, ptr %3, align 4, !tbaa !4
  %4 = load i32, ptr %3, align 4, !tbaa !4
  %5 = call noundef i32 @_ZL12ARRAY_LENGTHItLj87EEjRAT0__KT_(ptr noundef nonnull align 2 dereferenceable(174) @_ZL28expert_subset_charset_to_sid)
  %6 = icmp ult i32 %4, %5
  br i1 %6, label %7, label %13

7:                                                ; preds = %1
  %8 = load i32, ptr %3, align 4, !tbaa !4
  %9 = zext i32 %8 to i64
  %10 = getelementptr inbounds nuw [87 x i16], ptr @_ZL28expert_subset_charset_to_sid, i64 0, i64 %9
  %11 = load i16, ptr %10, align 2, !tbaa !12
  %12 = zext i16 %11 to i32
  store i32 %12, ptr %2, align 4
  br label %14

13:                                               ; preds = %1
  store i32 0, ptr %2, align 4
  br label %14

14:                                               ; preds = %13, %7
  %15 = load i32, ptr %2, align 4
  ret i32 %15
}