; Function Attrs: mustprogress nofree norecurse nosync nounwind willreturn memory(none) uwtable
define hidden noundef range(i32 0, 65536) i32 @_ZN2OT4cff136lookup_expert_subset_charset_for_sidEj(i32 noundef %0) local_unnamed_addr #0 align 2 {
  %2 = icmp ult i32 %0, 87
  br i1 %2, label %3, label %8

3:                                                ; preds = %1
  %4 = zext nneg i32 %0 to i64
  %5 = getelementptr inbounds nuw [87 x i16], ptr @_ZL28expert_subset_charset_to_sid, i64 0, i64 %4
  %6 = load i16, ptr %5, align 2, !tbaa !7
  %7 = zext i16 %6 to i32
  br label %8

8:                                                ; preds = %1, %3
  %.0 = phi i32 [ %7, %3 ], [ 0, %1 ]
  ret i32 %.0
}